target datalayout = "e-m:e-p270:32:32-p271:32:32-p272:64:64-i64:64-i128:128-f80:128-n8:16:32:64-S128"
target triple = "x86_64-pc-linux-gnu"

%"class.std::__cxx11::basic_string" = type { %"struct.std::__cxx11::basic_string<char>::_Alloc_hider", i64, %union.anon }
%"struct.std::__cxx11::basic_string<char>::_Alloc_hider" = type { ptr }
%union.anon = type { i64, [8 x i8] }
%struct.gmx_hw_opt_t = type <{ i32, i32, i32, i32, i32, i32, i32, [4 x i8], %"class.std::__cxx11::basic_string", %"class.std::__cxx11::basic_string", i8, [7 x i8] }>
%"class.gmx::ArrayRef" = type { %"struct.gmx::ArrayRefIter", %"struct.gmx::ArrayRefIter" }
%"struct.gmx::ArrayRefIter" = type { ptr }
%"struct.gmx::MdrunOptions" = type { i8, i8, i8, i8, i32, %"struct.gmx::CheckpointOptions", i64, float, %"struct.gmx::TimingOptions", i8, i8, [2 x i8], %"struct.gmx::ImdOptions", i8, i32 }
%"struct.gmx::CheckpointOptions" = type { i8, float }
%"struct.gmx::TimingOptions" = type <{ i32, i8, [3 x i8] }>
%"struct.gmx::ImdOptions" = type <{ i32, i8, i8, i8, i8 }>
%"struct.gmx::DomdecOptions" = type { i8, i8, [3 x i32], i32, i32, float, float, i32, float, ptr, ptr, ptr }
%struct.ReplicaExchangeParameters = type { i32, i32, i32 }
%"class.std::unique_ptr.10" = type { %"struct.std::__uniq_ptr_data.11" }
%"struct.std::__uniq_ptr_data.11" = type { %"class.std::__uniq_ptr_impl.12" }
%"class.std::__uniq_ptr_impl.12" = type { %"class.std::tuple.13" }
%"class.std::tuple.13" = type { %"struct.std::_Tuple_impl.14" }
%"struct.std::_Tuple_impl.14" = type { %"struct.std::_Head_base.17" }
%"struct.std::_Head_base.17" = type { ptr }
%"class.std::unique_ptr.18" = type { %"struct.std::__uniq_ptr_data.19" }
%"struct.std::__uniq_ptr_data.19" = type { %"class.std::__uniq_ptr_impl.20" }
%"class.std::__uniq_ptr_impl.20" = type { %"class.std::tuple.21" }
%"class.std::tuple.21" = type { %"struct.std::_Tuple_impl.22" }
%"struct.std::_Tuple_impl.22" = type { %"struct.std::_Head_base.25" }
%"struct.std::_Head_base.25" = type { ptr }
%"class.gmx::SimulationInputHandle" = type { %"class.std::unique_ptr.26" }
%"class.std::unique_ptr.26" = type { %"struct.std::__uniq_ptr_data.27" }
%"struct.std::__uniq_ptr_data.27" = type { %"class.std::__uniq_ptr_impl.28" }
%"class.std::__uniq_ptr_impl.28" = type { %"class.std::tuple.29" }
%"class.std::tuple.29" = type { %"struct.std::_Tuple_impl.30" }
%"struct.std::_Tuple_impl.30" = type { %"struct.std::_Head_base.33" }
%"struct.std::_Head_base.33" = type { ptr }
%"class.std::__shared_count" = type { ptr }
%"class.gmx::GromacsException" = type { %"class.std::exception", %"class.std::shared_ptr.49" }
%"class.std::exception" = type { ptr }
%"class.std::shared_ptr.49" = type { %"class.std::__shared_ptr.50" }
%"class.std::__shared_ptr.50" = type { ptr, %"class.std::__shared_count" }
%"class.gmx::ExceptionInitializer" = type { %"class.std::__cxx11::basic_string", %"class.std::vector.52" }
%"class.std::vector.52" = type { %"struct.std::_Vector_base.53" }
%"struct.std::_Vector_base.53" = type { %"struct.std::_Vector_base<std::__exception_ptr::exception_ptr, std::allocator<std::__exception_ptr::exception_ptr>>::_Vector_impl" }
%"struct.std::_Vector_base<std::__exception_ptr::exception_ptr, std::allocator<std::__exception_ptr::exception_ptr>>::_Vector_impl" = type { %"struct.std::_Vector_base<std::__exception_ptr::exception_ptr, std::allocator<std::__exception_ptr::exception_ptr>>::_Vector_impl_data" }
%"struct.std::_Vector_base<std::__exception_ptr::exception_ptr, std::allocator<std::__exception_ptr::exception_ptr>>::_Vector_impl_data" = type { ptr, ptr, ptr }
%"class.gmx::ExceptionInfo" = type { %"class.gmx::internal::IExceptionInfo", %"struct.gmx::ThrowLocation" }
%"class.gmx::internal::IExceptionInfo" = type { ptr }
%"struct.gmx::ThrowLocation" = type <{ ptr, ptr, i32, [4 x i8] }>
%"class.gmx::InvalidInputError" = type { %"class.gmx::UserInputError" }
%"class.gmx::UserInputError" = type { %"class.gmx::GromacsException" }
%"class.gmx::Mdrunner::BuilderImplementation" = type { ptr, ptr, ptr, ptr, ptr, %"struct.gmx::MdrunOptions", %"struct.gmx::DomdecOptions", %struct.ReplicaExchangeParameters, i32, ptr, ptr, ptr, float, i32, %"class.std::unique_ptr.18", ptr, %struct.gmx_hw_opt_t, %"class.gmx::ArrayRef", ptr, ptr, %"class.std::unique_ptr.10", %"class.gmx::SimulationInputHandle" }
%"class.std::unique_ptr.1612" = type { %"struct.std::__uniq_ptr_data.1613" }
%"struct.std::__uniq_ptr_data.1613" = type { %"class.std::__uniq_ptr_impl.1614" }
%"class.std::__uniq_ptr_impl.1614" = type { %"class.std::tuple.1615" }
%"class.std::tuple.1615" = type { %"struct.std::_Tuple_impl.1616" }
%"struct.std::_Tuple_impl.1616" = type { %"struct.std::_Head_base.1619" }
%"struct.std::_Head_base.1619" = type { ptr }
%"class.gmx::MdrunnerBuilder" = type { %"class.std::unique_ptr.1612" }

@.str.9 = private unnamed_addr constant [122 x i8] c"generated/home/dtcxzyw/WorkSpace/Projects/compilers/llvm-opt-benchmark/bench/gromacs/gromacs/src/gromacs/mdrun/runner.cpp\00", align 1
@_ZTVN3gmx8internal14IExceptionInfoE = available_externally unnamed_addr constant { [4 x ptr] } { [4 x ptr] [ptr null, ptr @_ZTIN3gmx8internal14IExceptionInfoE, ptr @_ZN3gmx8internal14IExceptionInfoD1Ev, ptr @_ZN3gmx8internal14IExceptionInfoD0Ev] }, align 8
@_ZTIN3gmx17InvalidInputErrorE = external constant ptr
@_ZTVN3gmx17InvalidInputErrorE = external unnamed_addr constant { [6 x ptr] }, align 8
@_ZTVN3gmx14UserInputErrorE = linkonce_odr unnamed_addr constant { [6 x ptr] } { [6 x ptr] [ptr null, ptr @_ZTIN3gmx14UserInputErrorE, ptr @_ZN3gmx16GromacsExceptionD2Ev, ptr @_ZN3gmx14UserInputErrorD0Ev, ptr @_ZNK3gmx16GromacsException4whatEv, ptr @__cxa_pure_virtual] }, comdat, align 8
@.str.121 = private unnamed_addr constant [57 x i8] c"addElectrostatics() arguments must be non-null pointers.\00", align 1
@__PRETTY_FUNCTION__._ZN3gmx15MdrunnerBuilder17addElectrostaticsEPKcS2_ = private unnamed_addr constant [85 x i8] c"MdrunnerBuilder &gmx::MdrunnerBuilder::addElectrostatics(const char *, const char *)\00", align 1

; Function Attrs: mustprogress nounwind uwtable
define linkonce_odr noundef nonnull align 8 dereferenceable(8) ptr @_ZNSt10_Head_baseILm0EPN3gmx8Mdrunner21BuilderImplementationELb0EE7_M_headERKS4_(ptr noundef nonnull align 8 dereferenceable(8) %0) #2 comdat align 2 {
  %2 = alloca ptr, align 8
  store ptr %0, ptr %2, align 8, !tbaa !3289
  %3 = load ptr, ptr %2, align 8, !tbaa !3289
  %4 = getelementptr inbounds nuw %"struct.std::_Head_base.1619", ptr %3, i32 0, i32 0
  ret ptr %4
}

; Function Attrs: mustprogress nounwind uwtable
define linkonce_odr noundef nonnull align 8 dereferenceable(8) ptr @_ZNSt11_Tuple_implILm0EJPN3gmx8Mdrunner21BuilderImplementationESt14default_deleteIS2_EEE7_M_headERKS6_(ptr noundef nonnull align 8 dereferenceable(8) %0) #2 comdat align 2 {
  %2 = alloca ptr, align 8
  store ptr %0, ptr %2, align 8, !tbaa !3285
  %3 = load ptr, ptr %2, align 8, !tbaa !3285
  %4 = call noundef nonnull align 8 dereferenceable(8) ptr @_ZNSt10_Head_baseILm0EPN3gmx8Mdrunner21BuilderImplementationELb0EE7_M_headERKS4_(ptr noundef nonnull align 8 dereferenceable(8) %3) #5
  ret ptr %4
}

; Function Attrs: mustprogress nounwind uwtable
define linkonce_odr noundef nonnull align 8 dereferenceable(8) ptr @_ZSt12__get_helperILm0EPN3gmx8Mdrunner21BuilderImplementationEJSt14default_deleteIS2_EEERKT0_RKSt11_Tuple_implIXT_EJS6_DpT1_EE(ptr noundef nonnull align 8 dereferenceable(8) %0) #2 comdat {
  %2 = alloca ptr, align 8
  store ptr %0, ptr %2, align 8, !tbaa !3285
  %3 = load ptr, ptr %2, align 8, !tbaa !3285
  %4 = call noundef nonnull align 8 dereferenceable(8) ptr @_ZNSt11_Tuple_implILm0EJPN3gmx8Mdrunner21BuilderImplementationESt14default_deleteIS2_EEE7_M_headERKS6_(ptr noundef nonnull align 8 dereferenceable(8) %3) #5
  ret ptr %4
}

; Function Attrs: mustprogress nounwind uwtable
define linkonce_odr noundef nonnull align 8 dereferenceable(8) ptr @_ZSt3getILm0EJPN3gmx8Mdrunner21BuilderImplementationESt14default_deleteIS2_EEERKNSt13tuple_elementIXT_ESt5tupleIJDpT0_EEE4typeERKSA_(ptr noundef nonnull align 8 dereferenceable(8) %0) #2 comdat {
  %2 = alloca ptr, align 8
  store ptr %0, ptr %2, align 8, !tbaa !3283
  %3 = load ptr, ptr %2, align 8, !tbaa !3283
  %4 = call noundef nonnull align 8 dereferenceable(8) ptr @_ZSt12__get_helperILm0EPN3gmx8Mdrunner21BuilderImplementationEJSt14default_deleteIS2_EEERKT0_RKSt11_Tuple_implIXT_EJS6_DpT1_EE(ptr noundef nonnull align 8 dereferenceable(8) %3) #5
  ret ptr %4
}

; Function Attrs: mustprogress nounwind uwtable
define linkonce_odr noundef ptr @_ZNKSt15__uniq_ptr_implIN3gmx8Mdrunner21BuilderImplementationESt14default_deleteIS2_EE6_M_ptrEv(ptr noundef nonnull align 8 dereferenceable(8) %0) #2 comdat align 2 {
  %2 = alloca ptr, align 8
  store ptr %0, ptr %2, align 8, !tbaa !3281
  %3 = load ptr, ptr %2, align 8
  %4 = getelementptr inbounds nuw %"class.std::__uniq_ptr_impl.1614", ptr %3, i32 0, i32 0
  %5 = call noundef nonnull align 8 dereferenceable(8) ptr @_ZSt3getILm0EJPN3gmx8Mdrunner21BuilderImplementationESt14default_deleteIS2_EEERKNSt13tuple_elementIXT_ESt5tupleIJDpT0_EEE4typeERKSA_(ptr noundef nonnull align 8 dereferenceable(8) %4) #5
  %6 = load ptr, ptr %5, align 8, !tbaa !3229
  ret ptr %6
}

; Function Attrs: mustprogress nounwind uwtable
define linkonce_odr void @_ZN3gmx8internal14IExceptionInfoC2Ev(ptr noundef nonnull align 8 dereferenceable(8) %0) unnamed_addr #2 comdat align 2 {
  %2 = alloca ptr, align 8
  store ptr %0, ptr %2, align 8, !tbaa !770
  %3 = load ptr, ptr %2, align 8
  store ptr getelementptr inbounds inrange(-16, 16) ({ [4 x ptr] }, ptr @_ZTVN3gmx8internal14IExceptionInfoE, i32 0, i32 0, i32 2), ptr %3, align 8, !tbaa !249
  ret void
}

; Function Attrs: mustprogress uwtable
define linkonce_odr void @_ZN3gmx14UserInputErrorC2ERKNS_20ExceptionInitializerE(ptr noundef nonnull align 8 dereferenceable(24) %0, ptr noundef nonnull align 8 dereferenceable(56) %1) unnamed_addr #3 comdat align 2 {
  %3 = alloca ptr, align 8
  %4 = alloca ptr, align 8
  store ptr %0, ptr %3, align 8, !tbaa !1902
  store ptr %1, ptr %4, align 8, !tbaa !247
  %5 = load ptr, ptr %3, align 8
  %6 = load ptr, ptr %4, align 8, !tbaa !247
  call void @_ZN3gmx16GromacsExceptionC2ERKNS_20ExceptionInitializerE(ptr noundef nonnull align 8 dereferenceable(24) %5, ptr noundef nonnull align 8 dereferenceable(56) %6)
  store ptr getelementptr inbounds inrange(-16, 32) ({ [6 x ptr] }, ptr @_ZTVN3gmx14UserInputErrorE, i32 0, i32 0, i32 2), ptr %5, align 8, !tbaa !249
  ret void
}

; Function Attrs: mustprogress nounwind uwtable
define linkonce_odr noundef ptr @_ZNKSt10unique_ptrIN3gmx8Mdrunner21BuilderImplementationESt14default_deleteIS2_EE3getEv(ptr noundef nonnull align 8 dereferenceable(8) %0) #2 comdat align 2 {
  %2 = alloca ptr, align 8
  store ptr %0, ptr %2, align 8, !tbaa !3277
  %3 = load ptr, ptr %2, align 8
  %4 = getelementptr inbounds nuw %"class.std::unique_ptr.1612", ptr %3, i32 0, i32 0
  %5 = call noundef ptr @_ZNKSt15__uniq_ptr_implIN3gmx8Mdrunner21BuilderImplementationESt14default_deleteIS2_EE6_M_ptrEv(ptr noundef nonnull align 8 dereferenceable(8) %4) #5
  ret ptr %5
}

; Function Attrs: mustprogress nounwind uwtable
define linkonce_odr void @_ZN3gmx13ExceptionInfoINS_22ExceptionInfoLocation_ENS_13ThrowLocationEEC2ERKS2_(ptr noundef nonnull align 8 dereferenceable(32) %0, ptr noundef nonnull align 8 dereferenceable(20) %1) unnamed_addr #2 comdat align 2 {
  %3 = alloca ptr, align 8
  %4 = alloca ptr, align 8
  store ptr %0, ptr %3, align 8, !tbaa !245
  store ptr %1, ptr %4, align 8, !tbaa !251
  %5 = load ptr, ptr %3, align 8
  call void @_ZN3gmx8internal14IExceptionInfoC2Ev(ptr noundef nonnull align 8 dereferenceable(8) %5) #5
  store ptr getelementptr inbounds inrange(-16, 16) ({ [4 x ptr] }, ptr @_ZTVN3gmx13ExceptionInfoINS_22ExceptionInfoLocation_ENS_13ThrowLocationEEE, i32 0, i32 0, i32 2), ptr %5, align 8, !tbaa !249
  %6 = getelementptr inbounds nuw %"class.gmx::ExceptionInfo", ptr %5, i32 0, i32 1
  %7 = load ptr, ptr %4, align 8, !tbaa !251
  call void @llvm.memcpy.p0.p0.i64(ptr align 8 %6, ptr align 8 %7, i64 24, i1 false), !tbaa.struct !257
  ret void
}

; Function Attrs: mustprogress nounwind uwtable
define linkonce_odr void @_ZN3gmx13ThrowLocationC2EPKcS2_i(ptr noundef nonnull align 8 dereferenceable(20) %0, ptr noundef %1, ptr noundef %2, i32 noundef %3) unnamed_addr #2 comdat align 2 {
  %5 = alloca ptr, align 8
  %6 = alloca ptr, align 8
  %7 = alloca ptr, align 8
  %8 = alloca i32, align 4
  store ptr %0, ptr %5, align 8, !tbaa !251
  store ptr %1, ptr %6, align 8, !tbaa !11
  store ptr %2, ptr %7, align 8, !tbaa !11
  store i32 %3, ptr %8, align 4, !tbaa !102
  %9 = load ptr, ptr %5, align 8
  %10 = getelementptr inbounds nuw %"struct.gmx::ThrowLocation", ptr %9, i32 0, i32 0
  %11 = load ptr, ptr %6, align 8, !tbaa !11
  store ptr %11, ptr %10, align 8, !tbaa !253
  %12 = getelementptr inbounds nuw %"struct.gmx::ThrowLocation", ptr %9, i32 0, i32 1
  %13 = load ptr, ptr %7, align 8, !tbaa !11
  store ptr %13, ptr %12, align 8, !tbaa !255
  %14 = getelementptr inbounds nuw %"struct.gmx::ThrowLocation", ptr %9, i32 0, i32 2
  %15 = load i32, ptr %8, align 4, !tbaa !102
  store i32 %15, ptr %14, align 8, !tbaa !256
  ret void
}

; Function Attrs: mustprogress uwtable
define linkonce_odr void @_ZN3gmx17InvalidInputErrorC2ERKNS_20ExceptionInitializerE(ptr noundef nonnull align 8 dereferenceable(24) %0, ptr noundef nonnull align 8 dereferenceable(56) %1) unnamed_addr #3 comdat align 2 {
  %3 = alloca ptr, align 8
  %4 = alloca ptr, align 8
  store ptr %0, ptr %3, align 8, !tbaa !1900
  store ptr %1, ptr %4, align 8, !tbaa !247
  %5 = load ptr, ptr %3, align 8
  %6 = load ptr, ptr %4, align 8, !tbaa !247
  call void @_ZN3gmx14UserInputErrorC2ERKNS_20ExceptionInitializerE(ptr noundef nonnull align 8 dereferenceable(24) %5, ptr noundef nonnull align 8 dereferenceable(56) %6)
  store ptr getelementptr inbounds inrange(-16, 32) ({ [6 x ptr] }, ptr @_ZTVN3gmx17InvalidInputErrorE, i32 0, i32 0, i32 2), ptr %5, align 8, !tbaa !249
  ret void
}

; Function Attrs: mustprogress nounwind uwtable
define void @_ZN3gmx8Mdrunner21BuilderImplementation6addPMEEPKcS3_(ptr noundef nonnull align 8 dereferenceable(376) %0, ptr noundef %1, ptr noundef %2) #2 align 2 {
  %4 = alloca ptr, align 8
  %5 = alloca ptr, align 8
  %6 = alloca ptr, align 8
  store ptr %0, ptr %4, align 8, !tbaa !3229
  store ptr %1, ptr %5, align 8, !tbaa !11
  store ptr %2, ptr %6, align 8, !tbaa !11
  %7 = load ptr, ptr %4, align 8
  %8 = load ptr, ptr %5, align 8, !tbaa !11
  %9 = getelementptr inbounds nuw %"class.gmx::Mdrunner::BuilderImplementation", ptr %7, i32 0, i32 1
  store ptr %8, ptr %9, align 8, !tbaa !3233
  %10 = load ptr, ptr %6, align 8, !tbaa !11
  %11 = getelementptr inbounds nuw %"class.gmx::Mdrunner::BuilderImplementation", ptr %7, i32 0, i32 2
  store ptr %10, ptr %11, align 8, !tbaa !3234
  ret void
}

; Function Attrs: mustprogress nounwind uwtable
define linkonce_odr noundef ptr @_ZNKSt10unique_ptrIN3gmx8Mdrunner21BuilderImplementationESt14default_deleteIS2_EEptEv(ptr noundef nonnull align 8 dereferenceable(8) %0) #2 comdat align 2 {
  %2 = alloca ptr, align 8
  store ptr %0, ptr %2, align 8, !tbaa !3277
  %3 = load ptr, ptr %2, align 8
  %4 = call noundef ptr @_ZNKSt10unique_ptrIN3gmx8Mdrunner21BuilderImplementationESt14default_deleteIS2_EE3getEv(ptr noundef nonnull align 8 dereferenceable(8) %3) #5
  ret ptr %4
}

; Function Attrs: mustprogress uwtable
define noundef nonnull align 8 dereferenceable(8) ptr @_ZN3gmx15MdrunnerBuilder17addElectrostaticsEPKcS2_(ptr noundef nonnull align 8 dereferenceable(8) %0, ptr noundef %1, ptr noundef %2) #3 align 2 personality ptr @__gxx_personality_v0 {
  %4 = alloca ptr, align 8
  %5 = alloca ptr, align 8
  %6 = alloca ptr, align 8
  %7 = alloca %"class.gmx::InvalidInputError", align 8
  %8 = alloca %"class.gmx::ExceptionInitializer", align 8
  %9 = alloca ptr, align 8
  %10 = alloca i32, align 4
  %11 = alloca %"class.gmx::ExceptionInfo", align 8
  %12 = alloca %"struct.gmx::ThrowLocation", align 8
  %13 = alloca i1, align 1
  store ptr %0, ptr %4, align 8, !tbaa !3273
  store ptr %1, ptr %5, align 8, !tbaa !11
  store ptr %2, ptr %6, align 8, !tbaa !11
  %14 = load ptr, ptr %4, align 8
  %15 = load ptr, ptr %5, align 8, !tbaa !11
  %16 = icmp ne ptr %15, null
  br i1 %16, label %17, label %25

17:                                               ; preds = %3
  %18 = load ptr, ptr %6, align 8, !tbaa !11
  %19 = icmp ne ptr %18, null
  br i1 %19, label %20, label %25

20:                                               ; preds = %17
  %21 = getelementptr inbounds nuw %"class.gmx::MdrunnerBuilder", ptr %14, i32 0, i32 0
  %22 = call noundef ptr @_ZNKSt10unique_ptrIN3gmx8Mdrunner21BuilderImplementationESt14default_deleteIS2_EEptEv(ptr noundef nonnull align 8 dereferenceable(8) %21) #5
  %23 = load ptr, ptr %5, align 8, !tbaa !11
  %24 = load ptr, ptr %6, align 8, !tbaa !11
  call void @_ZN3gmx8Mdrunner21BuilderImplementation6addPMEEPKcS3_(ptr noundef nonnull align 8 dereferenceable(376) %22, ptr noundef %23, ptr noundef %24)
  br label %54

25:                                               ; preds = %17, %3
  store i1 true, ptr %13, align 1
  %26 = call ptr @__cxa_allocate_exception(i64 24) #5
  call void @llvm.lifetime.start.p0(i64 56, ptr %8) #5
  invoke void @_ZN3gmx20ExceptionInitializerC2EPKc(ptr noundef nonnull align 8 dereferenceable(56) %8, ptr noundef @.str.121)
          to label %27 unwind label %32

27:                                               ; preds = %25
  invoke void @_ZN3gmx17InvalidInputErrorC2ERKNS_20ExceptionInitializerE(ptr noundef nonnull align 8 dereferenceable(24) %7, ptr noundef nonnull align 8 dereferenceable(56) %8)
          to label %28 unwind label %36

28:                                               ; preds = %27
  call void @llvm.lifetime.start.p0(i64 32, ptr %11) #5
  call void @llvm.lifetime.start.p0(i64 24, ptr %12) #5
  invoke void @_ZN3gmx13ThrowLocationC2EPKcS2_i(ptr noundef nonnull align 8 dereferenceable(20) %12, ptr noundef @__PRETTY_FUNCTION__._ZN3gmx15MdrunnerBuilder17addElectrostaticsEPKcS2_, ptr noundef @.str.9, i32 noundef 2866)
          to label %29 unwind label %40

29:                                               ; preds = %28
  invoke void @_ZN3gmx13ExceptionInfoINS_22ExceptionInfoLocation_ENS_13ThrowLocationEEC2ERKS2_(ptr noundef nonnull align 8 dereferenceable(32) %11, ptr noundef nonnull align 8 dereferenceable(20) %12)
          to label %30 unwind label %40

30:                                               ; preds = %29
  invoke void @_ZN3gmxlsINS_17InvalidInputErrorENS_22ExceptionInfoLocation_ENS_13ThrowLocationEEENSt9enable_ifIXsr3stdE12is_base_of_vINS_16GromacsExceptionET_EES6_E4typeES6_RKNS_13ExceptionInfoIT0_T1_EE(ptr dead_on_unwind writable sret(%"class.gmx::InvalidInputError") align 8 %26, ptr noundef %7, ptr noundef nonnull align 8 dereferenceable(32) %11)
          to label %31 unwind label %44

31:                                               ; preds = %30
  store i1 false, ptr %13, align 1
  invoke void @__cxa_throw(ptr %26, ptr @_ZTIN3gmx17InvalidInputErrorE, ptr @_ZN3gmx16GromacsExceptionD2Ev) #25
          to label %60 unwind label %44

32:                                               ; preds = %25
  %33 = landingpad { ptr, i32 }
          cleanup
  %34 = extractvalue { ptr, i32 } %33, 0
  store ptr %34, ptr %9, align 8
  %35 = extractvalue { ptr, i32 } %33, 1
  store i32 %35, ptr %10, align 4
  br label %50

36:                                               ; preds = %27
  %37 = landingpad { ptr, i32 }
          cleanup
  %38 = extractvalue { ptr, i32 } %37, 0
  store ptr %38, ptr %9, align 8
  %39 = extractvalue { ptr, i32 } %37, 1
  store i32 %39, ptr %10, align 4
  br label %49

40:                                               ; preds = %29, %28
  %41 = landingpad { ptr, i32 }
          cleanup
  %42 = extractvalue { ptr, i32 } %41, 0
  store ptr %42, ptr %9, align 8
  %43 = extractvalue { ptr, i32 } %41, 1
  store i32 %43, ptr %10, align 4
  br label %48

44:                                               ; preds = %31, %30
  %45 = landingpad { ptr, i32 }
          cleanup
  %46 = extractvalue { ptr, i32 } %45, 0
  store ptr %46, ptr %9, align 8
  %47 = extractvalue { ptr, i32 } %45, 1
  store i32 %47, ptr %10, align 4
  call void @_ZN3gmx8internal14IExceptionInfoD2Ev(ptr noundef nonnull align 8 dereferenceable(32) %11) #5
  br label %48

48:                                               ; preds = %44, %40
  call void @llvm.lifetime.end.p0(i64 24, ptr %12) #5
  call void @llvm.lifetime.end.p0(i64 32, ptr %11) #5
  call void @_ZN3gmx16GromacsExceptionD2Ev(ptr noundef nonnull align 8 dereferenceable(24) %7) #5
  br label %49

49:                                               ; preds = %48, %36
  call void @_ZN3gmx20ExceptionInitializerD2Ev(ptr noundef nonnull align 8 dereferenceable(56) %8) #5
  br label %50

50:                                               ; preds = %49, %32
  call void @llvm.lifetime.end.p0(i64 56, ptr %8) #5
  %51 = load i1, ptr %13, align 1
  br i1 %51, label %52, label %53

52:                                               ; preds = %50
  call void @__cxa_free_exception(ptr %26) #5
  br label %53

53:                                               ; preds = %52, %50
  br label %55

54:                                               ; preds = %20
  ret ptr %14

55:                                               ; preds = %53
  %56 = load ptr, ptr %9, align 8
  %57 = load i32, ptr %10, align 4
  %58 = insertvalue { ptr, i32 } poison, ptr %56, 0
  %59 = insertvalue { ptr, i32 } %58, i32 %57, 1
  resume { ptr, i32 } %59

60:                                               ; preds = %31
  unreachable
}