; Function Attrs: mustprogress uwtable
define noundef nonnull align 8 dereferenceable(8) ptr @_ZN3gmx15MdrunnerBuilder17addElectrostaticsEPKcS2_(ptr noundef nonnull readonly returned align 8 dereferenceable(8) %0, ptr noundef %1, ptr noundef %2) local_unnamed_addr #10 align 2 personality ptr @__gxx_personality_v0 {
  %4 = alloca %"class.gmx::InvalidInputError", align 8
  %5 = alloca %"class.gmx::ExceptionInitializer", align 8
  %6 = alloca %"class.gmx::ExceptionInfo", align 8
  %7 = icmp ne ptr %1, null
  %8 = icmp ne ptr %2, null
  %or.cond = and i1 %7, %8
  br i1 %or.cond, label %9, label %13

9:                                                ; preds = %3
  %10 = load ptr, ptr %0, align 8, !tbaa !1246
  %11 = getelementptr inbounds nuw i8, ptr %10, i64 8
  store ptr %1, ptr %11, align 8, !tbaa !1233
  %12 = getelementptr inbounds nuw i8, ptr %10, i64 16
  store ptr %2, ptr %12, align 8, !tbaa !1234
  ret ptr %0

13:                                               ; preds = %3
  %14 = tail call ptr @__cxa_allocate_exception(i64 24) #34
  call void @llvm.lifetime.start.p0(i64 56, ptr nonnull %5) #34
  invoke void @_ZN3gmx20ExceptionInitializerC2EPKc(ptr noundef nonnull align 8 dereferenceable(56) %5, ptr noundef nonnull @.str.121)
          to label %15 unwind label %.thread

15:                                               ; preds = %13
  invoke void @_ZN3gmx16GromacsExceptionC2ERKNS_20ExceptionInitializerE(ptr noundef nonnull align 8 dereferenceable(24) %4, ptr noundef nonnull align 8 dereferenceable(56) %5)
          to label %16 unwind label %.thread20

16:                                               ; preds = %15
  store ptr getelementptr inbounds nuw inrange(-16, 32) (i8, ptr @_ZTVN3gmx17InvalidInputErrorE, i64 16), ptr %4, align 8, !tbaa !134
  call void @llvm.lifetime.start.p0(i64 32, ptr nonnull %6) #34
  store ptr getelementptr inbounds nuw inrange(-16, 16) (i8, ptr @_ZTVN3gmx13ExceptionInfoINS_22ExceptionInfoLocation_ENS_13ThrowLocationEEE, i64 16), ptr %6, align 8, !tbaa !134
  %17 = getelementptr inbounds nuw i8, ptr %6, i64 8
  store ptr @__PRETTY_FUNCTION__._ZN3gmx15MdrunnerBuilder17addElectrostaticsEPKcS2_, ptr %17, align 8, !tbaa !103
  %.sroa.4.0..sroa_idx = getelementptr inbounds nuw i8, ptr %6, i64 16
  store ptr @.str.9, ptr %.sroa.4.0..sroa_idx, align 8, !tbaa !103
  %.sroa.5.0..sroa_idx = getelementptr inbounds nuw i8, ptr %6, i64 24
  store i32 2866, ptr %.sroa.5.0..sroa_idx, align 8, !tbaa !30
  invoke void @_ZN3gmxlsINS_17InvalidInputErrorENS_22ExceptionInfoLocation_ENS_13ThrowLocationEEENSt9enable_ifIXsr3stdE12is_base_of_vINS_16GromacsExceptionET_EES6_E4typeES6_RKNS_13ExceptionInfoIT0_T1_EE(ptr dead_on_unwind writable sret(%"class.gmx::InvalidInputError") align 8 %14, ptr noundef nonnull %4, ptr noundef nonnull align 8 dereferenceable(32) %6)
          to label %18 unwind label %21

18:                                               ; preds = %16
  invoke void @__cxa_throw(ptr %14, ptr nonnull @_ZTIN3gmx17InvalidInputErrorE, ptr nonnull @_ZN3gmx16GromacsExceptionD2Ev) #37
          to label %25 unwind label %21

.thread:                                          ; preds = %13
  %19 = landingpad { ptr, i32 }
          cleanup
  br label %.sink.split

.thread20:                                        ; preds = %15
  %20 = landingpad { ptr, i32 }
          cleanup
  call void @_ZN3gmx20ExceptionInitializerD2Ev(ptr noundef nonnull align 8 dereferenceable(56) %5) #34
  br label %.sink.split

21:                                               ; preds = %16, %18
  %.0 = phi i1 [ false, %18 ], [ true, %16 ]
  %22 = landingpad { ptr, i32 }
          cleanup
  call void @_ZN3gmx8internal14IExceptionInfoD2Ev(ptr noundef nonnull align 8 dereferenceable(32) %6) #34
  call void @llvm.lifetime.end.p0(i64 32, ptr nonnull %6) #34
  call void @_ZN3gmx16GromacsExceptionD2Ev(ptr noundef nonnull align 8 dereferenceable(24) %4) #34
  call void @_ZN3gmx20ExceptionInitializerD2Ev(ptr noundef nonnull align 8 dereferenceable(56) %5) #34
  call void @llvm.lifetime.end.p0(i64 56, ptr nonnull %5) #34
  br i1 %.0, label %23, label %24

.sink.split:                                      ; preds = %.thread, %.thread20
  %.pn.pn19.ph = phi { ptr, i32 } [ %20, %.thread20 ], [ %19, %.thread ]
  call void @llvm.lifetime.end.p0(i64 56, ptr nonnull %5) #34
  br label %23

23:                                               ; preds = %.sink.split, %21
  %.pn.pn19 = phi { ptr, i32 } [ %22, %21 ], [ %.pn.pn19.ph, %.sink.split ]
  call void @__cxa_free_exception(ptr %14) #34
  br label %24

24:                                               ; preds = %21, %23
  %.pn.pn18 = phi { ptr, i32 } [ %22, %21 ], [ %.pn.pn19, %23 ]
  resume { ptr, i32 } %.pn.pn18

25:                                               ; preds = %18
  unreachable
}